target datalayout = "e-m:e-p270:32:32-p271:32:32-p272:64:64-i64:64-i128:128-f80:128-n8:16:32:64-S128"
target triple = "x86_64-pc-linux-gnu"

%struct.cli_ctx_tag = type { ptr, ptr, ptr, ptr, ptr, ptr, ptr, i64, ptr, i32, i32, ptr, i32, i32, ptr, [16 x i8], ptr, ptr, ptr, ptr, ptr, ptr, %struct.timeval, i8, i8 }
%struct.timeval = type { i64, i64 }
%struct.cl_fmap = type { ptr, ptr, ptr, i64, i64, i64, i64, i8, i8, i8, i64, i64, i64, i64, ptr, ptr, ptr, ptr, ptr, ptr, ptr, i8, [16 x i8], i8, [20 x i8], i8, [32 x i8], ptr, ptr }
%struct.cl_engine = type { i32, i32, i32, [2 x i32], i32, i32, i32, ptr, i32, i64, i32, i32, i64, i64, i32, i32, i32, i32, ptr, ptr, ptr, ptr, ptr, ptr, ptr, ptr, ptr, ptr, ptr, ptr, ptr, ptr, ptr, ptr, ptr, ptr, ptr, i64, ptr, %struct.crtmgr, ptr, ptr, ptr, ptr, ptr, ptr, ptr, ptr, ptr, ptr, ptr, ptr, ptr, ptr, ptr, ptr, ptr, %struct.cli_all_bc, [7 x ptr], [7 x i32], i32, i32, i32, i32, i64, i64, i64, i64, i64, ptr, ptr, ptr, ptr, ptr, ptr, ptr, ptr, ptr, i32, i32, i32, i64, i64, i64, ptr }
%struct.crtmgr = type { ptr, i32 }
%struct.cli_all_bc = type { ptr, i32, ptr, %struct.cli_environment, i32 }
%struct.cli_environment = type { i32, i32, i32, i32, i32, i32, i32, [65 x i8], [65 x i8], [65 x i8], [65 x i8], [65 x i8], [65 x i8], [65 x i8], i8, i8, i8, i8, i8, i8, i8, i8, i8 }
%struct.cl_scan_options = type { i32, i32, i32, i32, i32 }

@.str.292 = private unnamed_addr constant [54 x i8] c"cli_scan_structured: %u credit card numbers detected\0A\00", align 1
@.str.293 = private unnamed_addr constant [39 x i8] c"Heuristics.Structured.CreditCardNumber\00", align 1
@.str.294 = private unnamed_addr constant [58 x i8] c"cli_scan_structured: %u social security numbers detected\0A\00", align 1
@.str.295 = private unnamed_addr constant [26 x i8] c"Heuristics.Structured.SSN\00", align 1

; Function Attrs: nounwind uwtable
define internal ptr @fmap_need_off_once(ptr noundef %0, i64 noundef %1, i64 noundef %2) #0 {
  %4 = alloca ptr, align 8
  %5 = alloca i64, align 8
  %6 = alloca i64, align 8
  store ptr %0, ptr %4, align 8
  store i64 %1, ptr %5, align 8
  store i64 %2, ptr %6, align 8
  %7 = load ptr, ptr %4, align 8
  %8 = getelementptr inbounds %struct.cl_fmap, ptr %7, i32 0, i32 15
  %9 = load ptr, ptr %8, align 8
  %10 = load ptr, ptr %4, align 8
  %11 = load i64, ptr %5, align 8
  %12 = load i64, ptr %6, align 8
  %13 = call ptr %9(ptr noundef %10, i64 noundef %11, i64 noundef %12, i32 noundef 0)
  ret ptr %13
}

; Function Attrs: nounwind uwtable
define internal i64 @fmap_readn(ptr noundef %0, ptr noundef %1, i64 noundef %2, i64 noundef %3) #0 {
  %5 = alloca i64, align 8
  %6 = alloca ptr, align 8
  %7 = alloca ptr, align 8
  %8 = alloca i64, align 8
  %9 = alloca i64, align 8
  %10 = alloca ptr, align 8
  store ptr %0, ptr %6, align 8
  store ptr %1, ptr %7, align 8
  store i64 %2, ptr %8, align 8
  store i64 %3, ptr %9, align 8
  %11 = load i64, ptr %8, align 8
  %12 = load ptr, ptr %6, align 8
  %13 = getelementptr inbounds %struct.cl_fmap, ptr %12, i32 0, i32 13
  %14 = load i64, ptr %13, align 8
  %15 = icmp eq i64 %11, %14
  br i1 %15, label %19, label %16

16:                                               ; preds = %4
  %17 = load i64, ptr %9, align 8
  %18 = icmp ne i64 %17, 0
  br i1 %18, label %20, label %19

19:                                               ; preds = %16, %4
  store i64 0, ptr %5, align 8
  br label %60

20:                                               ; preds = %16
  %21 = load i64, ptr %8, align 8
  %22 = load ptr, ptr %6, align 8
  %23 = getelementptr inbounds %struct.cl_fmap, ptr %22, i32 0, i32 13
  %24 = load i64, ptr %23, align 8
  %25 = icmp ugt i64 %21, %24
  br i1 %25, label %26, label %27

26:                                               ; preds = %20
  store i64 -1, ptr %5, align 8
  br label %60

27:                                               ; preds = %20
  %28 = load i64, ptr %9, align 8
  %29 = load ptr, ptr %6, align 8
  %30 = getelementptr inbounds %struct.cl_fmap, ptr %29, i32 0, i32 13
  %31 = load i64, ptr %30, align 8
  %32 = load i64, ptr %8, align 8
  %33 = sub i64 %31, %32
  %34 = icmp ugt i64 %28, %33
  br i1 %34, label %35, label %41

35:                                               ; preds = %27
  %36 = load ptr, ptr %6, align 8
  %37 = getelementptr inbounds %struct.cl_fmap, ptr %36, i32 0, i32 13
  %38 = load i64, ptr %37, align 8
  %39 = load i64, ptr %8, align 8
  %40 = sub i64 %38, %39
  store i64 %40, ptr %9, align 8
  br label %41

41:                                               ; preds = %35, %27
  %42 = load ptr, ptr %6, align 8
  %43 = load i64, ptr %8, align 8
  %44 = load i64, ptr %9, align 8
  %45 = call ptr @fmap_need_off_once(ptr noundef %42, i64 noundef %43, i64 noundef %44)
  store ptr %45, ptr %10, align 8
  %46 = load ptr, ptr %10, align 8
  %47 = icmp ne ptr %46, null
  br i1 %47, label %49, label %48

48:                                               ; preds = %41
  store i64 -1, ptr %5, align 8
  br label %60

49:                                               ; preds = %41
  %50 = load ptr, ptr %7, align 8
  %51 = load ptr, ptr %10, align 8
  %52 = load i64, ptr %9, align 8
  call void @llvm.memcpy.p0.p0.i64(ptr align 1 %50, ptr align 1 %51, i64 %52, i1 false)
  %53 = load i64, ptr %9, align 8
  %54 = icmp ule i64 %53, 2147483647
  br i1 %54, label %55, label %57

55:                                               ; preds = %49
  %56 = load i64, ptr %9, align 8
  br label %58

57:                                               ; preds = %49
  br label %58

58:                                               ; preds = %57, %55
  %59 = phi i64 [ %56, %55 ], [ -1, %57 ]
  store i64 %59, ptr %5, align 8
  br label %60

60:                                               ; preds = %58, %48, %26, %19
  %61 = load i64, ptr %5, align 8
  ret i64 %61
}

; Function Attrs: nounwind uwtable
define internal i32 @cli_scan_structured(ptr noundef %0) #0 {
  %2 = alloca i32, align 4
  %3 = alloca ptr, align 8
  %4 = alloca [8192 x i8], align 16
  %5 = alloca i64, align 8
  %6 = alloca i32, align 4
  %7 = alloca i32, align 4
  %8 = alloca i8, align 1
  %9 = alloca ptr, align 8
  %10 = alloca i64, align 8
  %11 = alloca ptr, align 8
  %12 = alloca ptr, align 8
  store ptr %0, ptr %3, align 8
  store i64 0, ptr %5, align 8
  store i32 0, ptr %6, align 4
  store i32 0, ptr %7, align 4
  store i8 0, ptr %8, align 1
  store i64 0, ptr %10, align 8
  %13 = load ptr, ptr %3, align 8
  %14 = icmp eq ptr %13, null
  br i1 %14, label %15, label %16

15:                                               ; preds = %1
  store i32 2, ptr %2, align 4
  br label %168

16:                                               ; preds = %1
  %17 = load ptr, ptr %3, align 8
  %18 = getelementptr inbounds %struct.cli_ctx_tag, ptr %17, i32 0, i32 14
  %19 = load ptr, ptr %18, align 8
  store ptr %19, ptr %9, align 8
  %20 = load ptr, ptr %3, align 8
  %21 = getelementptr inbounds %struct.cli_ctx_tag, ptr %20, i32 0, i32 6
  %22 = load ptr, ptr %21, align 8
  %23 = getelementptr inbounds %struct.cl_engine, ptr %22, i32 0, i32 16
  %24 = load i32, ptr %23, align 8
  %25 = icmp eq i32 %24, 1
  br i1 %25, label %26, label %27

26:                                               ; preds = %16
  store ptr @dlp_has_cc, ptr %11, align 8
  br label %28

27:                                               ; preds = %16
  store ptr @dlp_get_cc_count, ptr %11, align 8
  br label %28

28:                                               ; preds = %27, %26
  %29 = load ptr, ptr %3, align 8
  %30 = getelementptr inbounds %struct.cli_ctx_tag, ptr %29, i32 0, i32 8
  %31 = load ptr, ptr %30, align 8
  %32 = getelementptr inbounds %struct.cl_scan_options, ptr %31, i32 0, i32 2
  %33 = load i32, ptr %32, align 4
  %34 = and i32 %33, 1024
  %35 = load ptr, ptr %3, align 8
  %36 = getelementptr inbounds %struct.cli_ctx_tag, ptr %35, i32 0, i32 8
  %37 = load ptr, ptr %36, align 8
  %38 = getelementptr inbounds %struct.cl_scan_options, ptr %37, i32 0, i32 2
  %39 = load i32, ptr %38, align 4
  %40 = and i32 %39, 2048
  %41 = or i32 %34, %40
  switch i32 %41, label %72 [
    i32 3072, label %42
    i32 1024, label %52
    i32 2048, label %62
  ]

42:                                               ; preds = %28
  %43 = load ptr, ptr %3, align 8
  %44 = getelementptr inbounds %struct.cli_ctx_tag, ptr %43, i32 0, i32 6
  %45 = load ptr, ptr %44, align 8
  %46 = getelementptr inbounds %struct.cl_engine, ptr %45, i32 0, i32 17
  %47 = load i32, ptr %46, align 4
  %48 = icmp eq i32 %47, 1
  br i1 %48, label %49, label %50

49:                                               ; preds = %42
  store ptr @dlp_has_ssn, ptr %12, align 8
  br label %51

50:                                               ; preds = %42
  store ptr @dlp_get_ssn_count, ptr %12, align 8
  br label %51

51:                                               ; preds = %50, %49
  br label %73

52:                                               ; preds = %28
  %53 = load ptr, ptr %3, align 8
  %54 = getelementptr inbounds %struct.cli_ctx_tag, ptr %53, i32 0, i32 6
  %55 = load ptr, ptr %54, align 8
  %56 = getelementptr inbounds %struct.cl_engine, ptr %55, i32 0, i32 17
  %57 = load i32, ptr %56, align 4
  %58 = icmp eq i32 %57, 1
  br i1 %58, label %59, label %60

59:                                               ; preds = %52
  store ptr @dlp_has_normal_ssn, ptr %12, align 8
  br label %61

60:                                               ; preds = %52
  store ptr @dlp_get_normal_ssn_count, ptr %12, align 8
  br label %61

61:                                               ; preds = %60, %59
  br label %73

62:                                               ; preds = %28
  %63 = load ptr, ptr %3, align 8
  %64 = getelementptr inbounds %struct.cli_ctx_tag, ptr %63, i32 0, i32 6
  %65 = load ptr, ptr %64, align 8
  %66 = getelementptr inbounds %struct.cl_engine, ptr %65, i32 0, i32 17
  %67 = load i32, ptr %66, align 4
  %68 = icmp eq i32 %67, 1
  br i1 %68, label %69, label %70

69:                                               ; preds = %62
  store ptr @dlp_has_stripped_ssn, ptr %12, align 8
  br label %71

70:                                               ; preds = %62
  store ptr @dlp_get_stripped_ssn_count, ptr %12, align 8
  br label %71

71:                                               ; preds = %70, %69
  br label %73

72:                                               ; preds = %28
  store ptr null, ptr %12, align 8
  br label %73

73:                                               ; preds = %72, %71, %61, %51
  br label %74

74:                                               ; preds = %130, %73
  %75 = load i8, ptr %8, align 1
  %76 = trunc i8 %75 to i1
  br i1 %76, label %86, label %77

77:                                               ; preds = %74
  %78 = load ptr, ptr %9, align 8
  %79 = getelementptr inbounds [8192 x i8], ptr %4, i64 0, i64 0
  %80 = load i64, ptr %10, align 8
  %81 = call i64 @fmap_readn(ptr noundef %78, ptr noundef %79, i64 noundef %80, i64 noundef 8191)
  store i64 %81, ptr %5, align 8
  %82 = icmp ugt i64 %81, 0
  br i1 %82, label %83, label %86

83:                                               ; preds = %77
  %84 = load i64, ptr %5, align 8
  %85 = icmp ne i64 %84, -1
  br label %86

86:                                               ; preds = %83, %77, %74
  %87 = phi i1 [ false, %77 ], [ false, %74 ], [ %85, %83 ]
  br i1 %87, label %88, label %131

88:                                               ; preds = %86
  %89 = load i64, ptr %5, align 8
  %90 = load i64, ptr %10, align 8
  %91 = add i64 %90, %89
  store i64 %91, ptr %10, align 8
  %92 = load ptr, ptr %11, align 8
  %93 = getelementptr inbounds [8192 x i8], ptr %4, i64 0, i64 0
  %94 = load i64, ptr %5, align 8
  %95 = load ptr, ptr %3, align 8
  %96 = getelementptr inbounds %struct.cli_ctx_tag, ptr %95, i32 0, i32 8
  %97 = load ptr, ptr %96, align 8
  %98 = getelementptr inbounds %struct.cl_scan_options, ptr %97, i32 0, i32 2
  %99 = load i32, ptr %98, align 4
  %100 = and i32 %99, 4096
  %101 = icmp ne i32 %100, 0
  %102 = select i1 %101, i32 1, i32 0
  %103 = call i32 %92(ptr noundef %93, i64 noundef %94, i32 noundef %102)
  %104 = load i32, ptr %6, align 4
  %105 = add i32 %104, %103
  store i32 %105, ptr %6, align 4
  %106 = load ptr, ptr %3, align 8
  %107 = getelementptr inbounds %struct.cli_ctx_tag, ptr %106, i32 0, i32 6
  %108 = load ptr, ptr %107, align 8
  %109 = getelementptr inbounds %struct.cl_engine, ptr %108, i32 0, i32 16
  %110 = load i32, ptr %109, align 8
  %111 = icmp uge i32 %105, %110
  br i1 %111, label %112, label %113

112:                                              ; preds = %88
  store i8 1, ptr %8, align 1
  br label %113

113:                                              ; preds = %112, %88
  %114 = load ptr, ptr %12, align 8
  %115 = icmp ne ptr %114, null
  br i1 %115, label %116, label %130

116:                                              ; preds = %113
  %117 = load ptr, ptr %12, align 8
  %118 = getelementptr inbounds [8192 x i8], ptr %4, i64 0, i64 0
  %119 = load i64, ptr %5, align 8
  %120 = call i32 %117(ptr noundef %118, i64 noundef %119)
  %121 = load i32, ptr %7, align 4
  %122 = add i32 %121, %120
  store i32 %122, ptr %7, align 4
  %123 = load ptr, ptr %3, align 8
  %124 = getelementptr inbounds %struct.cli_ctx_tag, ptr %123, i32 0, i32 6
  %125 = load ptr, ptr %124, align 8
  %126 = getelementptr inbounds %struct.cl_engine, ptr %125, i32 0, i32 17
  %127 = load i32, ptr %126, align 4
  %128 = icmp uge i32 %122, %127
  br i1 %128, label %129, label %130

129:                                              ; preds = %116
  store i8 1, ptr %8, align 1
  br label %130

130:                                              ; preds = %129, %116, %113
  br label %74

131:                                              ; preds = %86
  %132 = load i32, ptr %6, align 4
  %133 = icmp ne i32 %132, 0
  br i1 %133, label %134, label %149

134:                                              ; preds = %131
  %135 = load i32, ptr %6, align 4
  %136 = load ptr, ptr %3, align 8
  %137 = getelementptr inbounds %struct.cli_ctx_tag, ptr %136, i32 0, i32 6
  %138 = load ptr, ptr %137, align 8
  %139 = getelementptr inbounds %struct.cl_engine, ptr %138, i32 0, i32 16
  %140 = load i32, ptr %139, align 8
  %141 = icmp uge i32 %135, %140
  br i1 %141, label %142, label %149

142:                                              ; preds = %134
  %143 = load i32, ptr %6, align 4
  call void (ptr, ...) @cli_dbgmsg(ptr noundef @.str.292, i32 noundef %143)
  %144 = load ptr, ptr %3, align 8
  %145 = call i32 @cli_append_potentially_unwanted(ptr noundef %144, ptr noundef @.str.293)
  %146 = icmp eq i32 1, %145
  br i1 %146, label %147, label %148

147:                                              ; preds = %142
  store i32 1, ptr %2, align 4
  br label %168

148:                                              ; preds = %142
  br label %149

149:                                              ; preds = %148, %134, %131
  %150 = load i32, ptr %7, align 4
  %151 = icmp ne i32 %150, 0
  br i1 %151, label %152, label %167

152:                                              ; preds = %149
  %153 = load i32, ptr %7, align 4
  %154 = load ptr, ptr %3, align 8
  %155 = getelementptr inbounds %struct.cli_ctx_tag, ptr %154, i32 0, i32 6
  %156 = load ptr, ptr %155, align 8
  %157 = getelementptr inbounds %struct.cl_engine, ptr %156, i32 0, i32 17
  %158 = load i32, ptr %157, align 4
  %159 = icmp uge i32 %153, %158
  br i1 %159, label %160, label %167

160:                                              ; preds = %152
  %161 = load i32, ptr %7, align 4
  call void (ptr, ...) @cli_dbgmsg(ptr noundef @.str.294, i32 noundef %161)
  %162 = load ptr, ptr %3, align 8
  %163 = call i32 @cli_append_potentially_unwanted(ptr noundef %162, ptr noundef @.str.295)
  %164 = icmp eq i32 1, %163
  br i1 %164, label %165, label %166

165:                                              ; preds = %160
  store i32 1, ptr %2, align 4
  br label %168

166:                                              ; preds = %160
  br label %167

167:                                              ; preds = %166, %152, %149
  store i32 0, ptr %2, align 4
  br label %168

168:                                              ; preds = %167, %165, %147, %15
  %169 = load i32, ptr %2, align 4
  ret i32 %169
}