; Function Attrs: nounwind uwtable
define internal fastcc range(i32 0, 3) i32 @cli_scan_structured(ptr noundef %0) unnamed_addr #0 {
  %2 = alloca [8192 x i8], align 16
  %3 = icmp eq ptr %0, null
  br i1 %3, label %89, label %4

4:                                                ; preds = %1
  %5 = getelementptr inbounds nuw i8, ptr %0, i64 96
  %6 = load ptr, ptr %5, align 8
  %7 = getelementptr inbounds nuw i8, ptr %0, i64 48
  %8 = load ptr, ptr %7, align 8
  %9 = getelementptr inbounds nuw i8, ptr %8, i64 88
  %10 = load i32, ptr %9, align 8
  %11 = icmp eq i32 %10, 1
  %dlp_has_cc.dlp_get_cc_count = select i1 %11, ptr @dlp_has_cc, ptr @dlp_get_cc_count
  %12 = getelementptr inbounds nuw i8, ptr %0, i64 64
  %13 = load ptr, ptr %12, align 8
  %14 = getelementptr inbounds nuw i8, ptr %13, i64 8
  %15 = load i32, ptr %14, align 4
  %16 = lshr i32 %15, 10
  %17 = and i32 %16, 3
  switch i32 %17, label %default.unreachable [
    i32 3, label %18
    i32 1, label %22
    i32 2, label %26
    i32 0, label %.split.us.preheader
  ]

18:                                               ; preds = %4
  %19 = getelementptr inbounds nuw i8, ptr %8, i64 92
  %20 = load i32, ptr %19, align 4
  %21 = icmp eq i32 %20, 1
  %dlp_has_ssn.dlp_get_ssn_count = select i1 %21, ptr @dlp_has_ssn, ptr @dlp_get_ssn_count
  br label %.split.preheader

22:                                               ; preds = %4
  %23 = getelementptr inbounds nuw i8, ptr %8, i64 92
  %24 = load i32, ptr %23, align 4
  %25 = icmp eq i32 %24, 1
  %dlp_has_normal_ssn.dlp_get_normal_ssn_count = select i1 %25, ptr @dlp_has_normal_ssn, ptr @dlp_get_normal_ssn_count
  br label %.split.preheader

26:                                               ; preds = %4
  %27 = getelementptr inbounds nuw i8, ptr %8, i64 92
  %28 = load i32, ptr %27, align 4
  %29 = icmp eq i32 %28, 1
  %dlp_has_stripped_ssn.dlp_get_stripped_ssn_count = select i1 %29, ptr @dlp_has_stripped_ssn, ptr @dlp_get_stripped_ssn_count
  br label %.split.preheader

default.unreachable:                              ; preds = %4
  unreachable

.split.preheader:                                 ; preds = %18, %22, %26
  %.0.ph = phi ptr [ %dlp_has_stripped_ssn.dlp_get_stripped_ssn_count, %26 ], [ %dlp_has_normal_ssn.dlp_get_normal_ssn_count, %22 ], [ %dlp_has_ssn.dlp_get_ssn_count, %18 ]
  %30 = getelementptr inbounds nuw i8, ptr %6, i64 88
  %31 = getelementptr inbounds nuw i8, ptr %6, i64 104
  br label %.split

.split.us.preheader:                              ; preds = %4
  %32 = getelementptr inbounds nuw i8, ptr %6, i64 88
  %33 = getelementptr inbounds nuw i8, ptr %6, i64 104
  br label %.split.us

.split.us:                                        ; preds = %.split.us.preheader, %40
  %.03659.us = phi i64 [ %41, %40 ], [ 0, %.split.us.preheader ]
  %.04156.us = phi i32 [ %47, %40 ], [ 0, %.split.us.preheader ]
  %34 = load i64, ptr %32, align 8
  %or.cond55.not.us = icmp ult i64 %.03659.us, %34
  br i1 %or.cond55.not.us, label %35, label %.critedge

35:                                               ; preds = %.split.us
  %36 = sub nuw i64 %34, %.03659.us
  %spec.select.i.us = call i64 @llvm.umin.i64(i64 %36, i64 8191)
  %37 = load ptr, ptr %33, align 8
  %38 = call ptr %37(ptr noundef nonnull %6, i64 noundef %.03659.us, i64 noundef %spec.select.i.us, i32 noundef 0) #16
  %.not26.i.us = icmp eq ptr %38, null
  br i1 %.not26.i.us, label %.critedge, label %fmap_readn.exit.us

fmap_readn.exit.us:                               ; preds = %35
  call void @llvm.memcpy.p0.p0.i64(ptr nonnull align 16 %2, ptr nonnull align 1 %38, i64 %spec.select.i.us, i1 false)
  %39 = add nsw i64 %spec.select.i.us, -1
  %or.cond.us = icmp ult i64 %39, -2
  br i1 %or.cond.us, label %40, label %.critedge

40:                                               ; preds = %fmap_readn.exit.us
  %41 = add i64 %spec.select.i.us, %.03659.us
  %42 = load ptr, ptr %12, align 8
  %43 = getelementptr inbounds nuw i8, ptr %42, i64 8
  %44 = load i32, ptr %43, align 4
  %45 = lshr i32 %44, 12
  %.lobit.us = and i32 %45, 1
  %46 = call i32 %dlp_has_cc.dlp_get_cc_count(ptr noundef nonnull %2, i64 noundef %spec.select.i.us, i32 noundef %.lobit.us) #16, !callees !4
  %47 = add i32 %46, %.04156.us
  %48 = load ptr, ptr %7, align 8
  %49 = getelementptr inbounds nuw i8, ptr %48, i64 88
  %50 = load i32, ptr %49, align 8
  %.not.us.not = icmp ult i32 %47, %50
  br i1 %.not.us.not, label %.split.us, label %.critedge

.split:                                           ; preds = %.split.preheader, %57
  %.03659 = phi i64 [ %58, %57 ], [ 0, %.split.preheader ]
  %.03957 = phi i32 [ %69, %57 ], [ 0, %.split.preheader ]
  %.04156 = phi i32 [ %64, %57 ], [ 0, %.split.preheader ]
  %51 = load i64, ptr %30, align 8
  %or.cond55.not = icmp ult i64 %.03659, %51
  br i1 %or.cond55.not, label %52, label %.critedge

52:                                               ; preds = %.split
  %53 = sub nuw i64 %51, %.03659
  %spec.select.i = call i64 @llvm.umin.i64(i64 %53, i64 8191)
  %54 = load ptr, ptr %31, align 8
  %55 = call ptr %54(ptr noundef nonnull %6, i64 noundef %.03659, i64 noundef %spec.select.i, i32 noundef 0) #16
  %.not26.i = icmp eq ptr %55, null
  br i1 %.not26.i, label %.critedge, label %fmap_readn.exit

fmap_readn.exit:                                  ; preds = %52
  call void @llvm.memcpy.p0.p0.i64(ptr nonnull align 16 %2, ptr nonnull align 1 %55, i64 %spec.select.i, i1 false)
  %56 = add nsw i64 %spec.select.i, -1
  %or.cond = icmp ult i64 %56, -2
  br i1 %or.cond, label %57, label %.critedge

57:                                               ; preds = %fmap_readn.exit
  %58 = add i64 %spec.select.i, %.03659
  %59 = load ptr, ptr %12, align 8
  %60 = getelementptr inbounds nuw i8, ptr %59, i64 8
  %61 = load i32, ptr %60, align 4
  %62 = lshr i32 %61, 12
  %.lobit = and i32 %62, 1
  %63 = call i32 %dlp_has_cc.dlp_get_cc_count(ptr noundef nonnull %2, i64 noundef %spec.select.i, i32 noundef %.lobit) #16, !callees !4
  %64 = add i32 %63, %.04156
  %65 = load ptr, ptr %7, align 8
  %66 = getelementptr inbounds nuw i8, ptr %65, i64 88
  %67 = load i32, ptr %66, align 8
  %.not = icmp uge i32 %64, %67
  %68 = call i32 %.0.ph(ptr noundef nonnull %2, i64 noundef %spec.select.i) #16
  %69 = add i32 %68, %.03957
  %70 = load ptr, ptr %7, align 8
  %71 = getelementptr inbounds nuw i8, ptr %70, i64 92
  %72 = load i32, ptr %71, align 4
  %.not47 = icmp uge i32 %69, %72
  %spec.select52 = select i1 %.not47, i1 true, i1 %.not
  br i1 %spec.select52, label %.critedge, label %.split

.critedge:                                        ; preds = %.split.us, %35, %fmap_readn.exit.us, %40, %57, %fmap_readn.exit, %.split, %52
  %.us-phi = phi i32 [ %.04156, %52 ], [ %.04156, %.split ], [ %.04156, %fmap_readn.exit ], [ %64, %57 ], [ %.04156.us, %35 ], [ %.04156.us, %.split.us ], [ %.04156.us, %fmap_readn.exit.us ], [ %47, %40 ]
  %.us-phi60 = phi i32 [ %.03957, %52 ], [ %.03957, %.split ], [ %.03957, %fmap_readn.exit ], [ %69, %57 ], [ 0, %40 ], [ 0, %fmap_readn.exit.us ], [ 0, %35 ], [ 0, %.split.us ]
  %.not48 = icmp eq i32 %.us-phi, 0
  br i1 %.not48, label %80, label %73

73:                                               ; preds = %.critedge
  %74 = load ptr, ptr %7, align 8
  %75 = getelementptr inbounds nuw i8, ptr %74, i64 88
  %76 = load i32, ptr %75, align 8
  %.not49 = icmp ult i32 %.us-phi, %76
  br i1 %.not49, label %80, label %77

77:                                               ; preds = %73
  call void (ptr, ...) @cli_dbgmsg(ptr noundef nonnull @.str.292, i32 noundef %.us-phi) #16
  %78 = call i32 @cli_append_potentially_unwanted(ptr noundef nonnull %0, ptr noundef nonnull @.str.293) #16
  %79 = icmp eq i32 %78, 1
  br i1 %79, label %89, label %80

80:                                               ; preds = %77, %73, %.critedge
  %.not50 = icmp eq i32 %.us-phi60, 0
  br i1 %.not50, label %88, label %81

81:                                               ; preds = %80
  %82 = load ptr, ptr %7, align 8
  %83 = getelementptr inbounds nuw i8, ptr %82, i64 92
  %84 = load i32, ptr %83, align 4
  %.not51 = icmp ult i32 %.us-phi60, %84
  br i1 %.not51, label %88, label %85

85:                                               ; preds = %81
  call void (ptr, ...) @cli_dbgmsg(ptr noundef nonnull @.str.294, i32 noundef %.us-phi60) #16
  %86 = call i32 @cli_append_potentially_unwanted(ptr noundef nonnull %0, ptr noundef nonnull @.str.295) #16
  %87 = icmp eq i32 %86, 1
  br i1 %87, label %89, label %88

88:                                               ; preds = %85, %81, %80
  br label %89

89:                                               ; preds = %85, %77, %1, %88
  %.037 = phi i32 [ 0, %88 ], [ 2, %1 ], [ 1, %77 ], [ 1, %85 ]
  ret i32 %.037
}